; Function Attrs: mustprogress uwtable
define internal void @_ZNK7testing8internal15ResultOfMatcherIZN4absl18debugging_internal12_GLOBAL__N_122DecodeRustPunycodeTest19PointsToTheNulAfterERKNSt7__cxx1112basic_stringIcSt11char_traitsIcESaIcEEEEUlPKcE_NS_18PolymorphicMatcherINS0_18StrEqualityMatcherISB_EEEEE4ImplIRKPcE10DescribeToEPSo(ptr noundef nonnull align 8 dereferenceable(72) %0, ptr noundef %1) unnamed_addr #4 align 2 personality ptr @__gxx_personality_v0 {
  %3 = alloca %"class.testing::internal::GTestLog", align 4
  %4 = getelementptr inbounds nuw i8, ptr %0, i64 16
  %5 = load i64, ptr %4, align 8, !tbaa !10
  %6 = icmp eq i64 %5, 0
  br i1 %6, label %7, label %9

7:                                                ; preds = %2
  %8 = tail call noundef nonnull align 8 dereferenceable(8) ptr @_ZSt16__ostream_insertIcSt11char_traitsIcEERSt13basic_ostreamIT_T0_ES6_PKS3_l(ptr noundef nonnull align 8 dereferenceable(8) %1, ptr noundef nonnull @.str.112, i64 noundef 48)
  br label %16

9:                                                ; preds = %2
  %10 = getelementptr inbounds nuw i8, ptr %0, i64 8
  %11 = tail call noundef nonnull align 8 dereferenceable(8) ptr @_ZSt16__ostream_insertIcSt11char_traitsIcEERSt13basic_ostreamIT_T0_ES6_PKS3_l(ptr noundef nonnull align 8 dereferenceable(8) %1, ptr noundef nonnull @.str.113, i64 noundef 6)
  %12 = load ptr, ptr %10, align 8, !tbaa !16
  %13 = load i64, ptr %4, align 8, !tbaa !10
  %14 = tail call noundef nonnull align 8 dereferenceable(8) ptr @_ZSt16__ostream_insertIcSt11char_traitsIcEERSt13basic_ostreamIT_T0_ES6_PKS3_l(ptr noundef nonnull align 8 dereferenceable(8) %1, ptr noundef %12, i64 noundef %13)
  %15 = tail call noundef nonnull align 8 dereferenceable(8) ptr @_ZSt16__ostream_insertIcSt11char_traitsIcEERSt13basic_ostreamIT_T0_ES6_PKS3_l(ptr noundef nonnull align 8 dereferenceable(8) %14, ptr noundef nonnull @.str.93, i64 noundef 1)
  br label %16

16:                                               ; preds = %9, %7
  %17 = getelementptr inbounds nuw i8, ptr %0, i64 56
  %18 = load ptr, ptr %17, align 8, !tbaa !247
  %19 = icmp ne ptr %18, null
  %20 = tail call noundef zeroext i1 @_ZN7testing8internal6IsTrueEb(i1 noundef zeroext %19)
  br i1 %20, label %_ZNK7testing8internal11MatcherBaseIPKcE10DescribeToEPSo.exit, label %21

21:                                               ; preds = %16
  call void @llvm.lifetime.start.p0(i64 4, ptr nonnull %3) #24
  call void @_ZN7testing8internal8GTestLogC1ENS0_16GTestLogSeverityEPKci(ptr noundef nonnull align 4 dereferenceable(4) %3, i32 noundef 3, ptr noundef nonnull @.str.90, i32 noundef 245)
  %22 = invoke noundef nonnull align 8 dereferenceable(8) ptr @_ZSt16__ostream_insertIcSt11char_traitsIcEERSt13basic_ostreamIT_T0_ES6_PKS3_l(ptr noundef nonnull align 8 dereferenceable(8) @_ZSt4cerr, ptr noundef nonnull @.str.91, i64 noundef 37)
          to label %_ZStlsISt11char_traitsIcEERSt13basic_ostreamIcT_ES5_PKc.exit.i unwind label %23

_ZStlsISt11char_traitsIcEERSt13basic_ostreamIcT_ES5_PKc.exit.i: ; preds = %21
  call void @_ZN7testing8internal8GTestLogD1Ev(ptr noundef nonnull align 4 dereferenceable(4) %3) #24
  call void @llvm.lifetime.end.p0(i64 4, ptr nonnull %3) #24
  br label %_ZNK7testing8internal11MatcherBaseIPKcE10DescribeToEPSo.exit

23:                                               ; preds = %21
  %24 = landingpad { ptr, i32 }
          cleanup
  call void @_ZN7testing8internal8GTestLogD1Ev(ptr noundef nonnull align 4 dereferenceable(4) %3) #24
  call void @llvm.lifetime.end.p0(i64 4, ptr nonnull %3) #24
  resume { ptr, i32 } %24

_ZNK7testing8internal11MatcherBaseIPKcE10DescribeToEPSo.exit: ; preds = %16, %_ZStlsISt11char_traitsIcEERSt13basic_ostreamIcT_ES5_PKc.exit.i
  %25 = getelementptr inbounds nuw i8, ptr %0, i64 48
  %26 = load ptr, ptr %17, align 8, !tbaa !247
  %27 = getelementptr inbounds nuw i8, ptr %26, i64 8
  %28 = load ptr, ptr %27, align 8, !tbaa !252
  call void %28(ptr noundef nonnull align 8 dereferenceable(24) %25, ptr noundef nonnull %1, i1 noundef zeroext false)
  ret void
}